; Function Attrs: mustprogress nofree nosync nounwind willreturn memory(read, inaccessiblemem: none) uwtable
define noundef zeroext i1 @_ZNK5Yosys3AST7AstNode8containsEPKS1_(ptr noundef nonnull readonly align 8 dereferenceable(284) %0, ptr noundef %1) local_unnamed_addr #10 align 2 {
  %3 = icmp eq ptr %0, %1
  br i1 %3, label %.loopexit, label %4

4:                                                ; preds = %2
  %5 = getelementptr inbounds i8, ptr %0, i64 8
  %6 = load ptr, ptr %5, align 8
  %7 = getelementptr inbounds i8, ptr %0, i64 16
  %8 = load ptr, ptr %7, align 8
  %.not12 = icmp eq ptr %6, %8
  br i1 %.not12, label %.loopexit, label %.lr.ph

.lr.ph:                                           ; preds = %4, %.lr.ph
  %.sroa.09.013 = phi ptr [ %11, %.lr.ph ], [ %6, %4 ]
  %9 = load ptr, ptr %.sroa.09.013, align 8
  %10 = tail call noundef zeroext i1 @_ZNK5Yosys3AST7AstNode8containsEPKS1_(ptr noundef nonnull align 8 dereferenceable(284) %9, ptr noundef %1)
  %11 = getelementptr inbounds i8, ptr %.sroa.09.013, i64 8
  %.not = icmp eq ptr %11, %8
  %or.cond = select i1 %10, i1 true, i1 %.not
  br i1 %or.cond, label %.loopexit, label %.lr.ph

.loopexit:                                        ; preds = %.lr.ph, %4, %2
  %.0 = phi i1 [ true, %2 ], [ false, %4 ], [ %10, %.lr.ph ]
  ret i1 %.0
}